target datalayout = "e-m:e-p270:32:32-p271:32:32-p272:64:64-i64:64-i128:128-f80:128-n8:16:32:64-S128"
target triple = "x86_64-pc-linux-gnu"

%struct.accounting_update_msg_t = type { ptr, i16 }

; Function Attrs: nounwind uwtable
define internal void @_pack_accounting_update_msg(ptr noundef %0, ptr noundef %1, i16 noundef zeroext %2) #0 {
  %4 = alloca ptr, align 8
  %5 = alloca ptr, align 8
  %6 = alloca i16, align 2
  %7 = alloca i32, align 4
  %8 = alloca ptr, align 8
  %9 = alloca ptr, align 8
  store ptr %0, ptr %4, align 8
  store ptr %1, ptr %5, align 8
  store i16 %2, ptr %6, align 2
  call void @llvm.lifetime.start.p0(i64 4, ptr %7) #6
  store i32 0, ptr %7, align 4
  call void @llvm.lifetime.start.p0(i64 8, ptr %8) #6
  store ptr null, ptr %8, align 8
  call void @llvm.lifetime.start.p0(i64 8, ptr %9) #6
  store ptr null, ptr %9, align 8
  %10 = load i16, ptr %6, align 2
  %11 = zext i16 %10 to i32
  %12 = icmp sge i32 %11, 10240
  br i1 %12, label %13, label %44

13:                                               ; preds = %3
  %14 = load ptr, ptr %4, align 8
  %15 = getelementptr inbounds nuw %struct.accounting_update_msg_t, ptr %14, i32 0, i32 0
  %16 = load ptr, ptr %15, align 8
  %17 = icmp ne ptr %16, null
  br i1 %17, label %18, label %23

18:                                               ; preds = %13
  %19 = load ptr, ptr %4, align 8
  %20 = getelementptr inbounds nuw %struct.accounting_update_msg_t, ptr %19, i32 0, i32 0
  %21 = load ptr, ptr %20, align 8
  %22 = call i32 @list_count(ptr noundef %21)
  store i32 %22, ptr %7, align 4
  br label %23

23:                                               ; preds = %18, %13
  %24 = load i32, ptr %7, align 4
  %25 = load ptr, ptr %5, align 8
  call void @pack32(i32 noundef %24, ptr noundef %25)
  %26 = load i32, ptr %7, align 4
  %27 = icmp ne i32 %26, 0
  br i1 %27, label %28, label %43

28:                                               ; preds = %23
  %29 = load ptr, ptr %4, align 8
  %30 = getelementptr inbounds nuw %struct.accounting_update_msg_t, ptr %29, i32 0, i32 0
  %31 = load ptr, ptr %30, align 8
  %32 = call ptr @list_iterator_create(ptr noundef %31)
  store ptr %32, ptr %8, align 8
  br label %33

33:                                               ; preds = %37, %28
  %34 = load ptr, ptr %8, align 8
  %35 = call ptr @list_next(ptr noundef %34)
  store ptr %35, ptr %9, align 8
  %36 = icmp ne ptr %35, null
  br i1 %36, label %37, label %41

37:                                               ; preds = %33
  %38 = load ptr, ptr %9, align 8
  %39 = load i16, ptr %6, align 2
  %40 = load ptr, ptr %5, align 8
  call void @slurmdb_pack_update_object(ptr noundef %38, i16 noundef zeroext %39, ptr noundef %40)
  br label %33, !llvm.loop !54

41:                                               ; preds = %33
  %42 = load ptr, ptr %8, align 8
  call void @list_iterator_destroy(ptr noundef %42)
  br label %43

43:                                               ; preds = %41, %23
  br label %44

44:                                               ; preds = %43, %3
  call void @llvm.lifetime.end.p0(i64 8, ptr %9) #6
  call void @llvm.lifetime.end.p0(i64 8, ptr %8) #6
  call void @llvm.lifetime.end.p0(i64 4, ptr %7) #6
  ret void
}