; Function Attrs: nounwind uwtable
define internal fastcc void @_pack_accounting_update_msg(ptr noundef readonly captures(none) %0, ptr noundef %1, i16 noundef zeroext %2) unnamed_addr #0 {
  %4 = icmp ugt i16 %2, 10239
  br i1 %4, label %5, label %15

5:                                                ; preds = %3
  %6 = load ptr, ptr %0, align 8
  %.not = icmp eq ptr %6, null
  br i1 %.not, label %.thread, label %7

.thread:                                          ; preds = %5
  tail call void @pack32(i32 noundef 0, ptr noundef %1) #7
  br label %15

7:                                                ; preds = %5
  %8 = tail call i32 @list_count(ptr noundef nonnull %6) #7
  tail call void @pack32(i32 noundef %8, ptr noundef %1) #7
  %.not13 = icmp eq i32 %8, 0
  br i1 %.not13, label %15, label %9

9:                                                ; preds = %7
  %10 = load ptr, ptr %0, align 8
  %11 = tail call ptr @list_iterator_create(ptr noundef %10) #7
  %12 = tail call ptr @list_next(ptr noundef %11) #7
  %.not1417 = icmp eq ptr %12, null
  br i1 %.not1417, label %._crit_edge, label %.lr.ph

.lr.ph:                                           ; preds = %9, %.lr.ph
  %13 = phi ptr [ %14, %.lr.ph ], [ %12, %9 ]
  tail call void @slurmdb_pack_update_object(ptr noundef nonnull %13, i16 noundef zeroext %2, ptr noundef %1) #7
  %14 = tail call ptr @list_next(ptr noundef %11) #7
  %.not14 = icmp eq ptr %14, null
  br i1 %.not14, label %._crit_edge, label %.lr.ph, !llvm.loop !55

._crit_edge:                                      ; preds = %.lr.ph, %9
  tail call void @list_iterator_destroy(ptr noundef %11) #7
  br label %15

15:                                               ; preds = %.thread, %7, %._crit_edge, %3
  ret void
}